; Function Attrs: nounwind uwtable
define void @ma_job_queue_uninit(ptr noundef %0, ptr noundef readonly captures(address_is_null) %1) local_unnamed_addr #7 {
  %3 = icmp eq ptr %0, null
  br i1 %3, label %ma_free.exit, label %4

4:                                                ; preds = %2
  %5 = load i32, ptr %0, align 8, !tbaa !77
  %6 = and i32 %5, 1
  %7 = icmp eq i32 %6, 0
  br i1 %7, label %8, label %13

8:                                                ; preds = %4
  %9 = getelementptr inbounds nuw i8, ptr %0, i64 72
  %10 = tail call i32 @pthread_cond_destroy(ptr noundef nonnull %9) #69
  %11 = getelementptr inbounds nuw i8, ptr %0, i64 32
  %12 = tail call i32 @pthread_mutex_destroy(ptr noundef nonnull %11) #69
  br label %13

13:                                               ; preds = %8, %4
  %14 = getelementptr inbounds nuw i8, ptr %0, i64 144
  %15 = load i32, ptr %14, align 8, !tbaa !61
  %.not.i = icmp eq i32 %15, 0
  br i1 %.not.i, label %ma_slot_allocator_uninit.exit, label %16

16:                                               ; preds = %13
  %17 = getelementptr inbounds nuw i8, ptr %0, i64 152
  %18 = load ptr, ptr %17, align 8, !tbaa !56
  %19 = icmp eq ptr %18, null
  br i1 %19, label %ma_slot_allocator_uninit.exit, label %20

20:                                               ; preds = %16
  %.not.i.i = icmp eq ptr %1, null
  br i1 %.not.i.i, label %26, label %21

21:                                               ; preds = %20
  %22 = getelementptr inbounds nuw i8, ptr %1, i64 24
  %23 = load ptr, ptr %22, align 8, !tbaa !26
  %.not9.i.i = icmp eq ptr %23, null
  br i1 %.not9.i.i, label %ma_slot_allocator_uninit.exit, label %24

24:                                               ; preds = %21
  %25 = load ptr, ptr %1, align 8, !tbaa !21
  tail call void %23(ptr noundef nonnull %18, ptr noundef %25) #69
  br label %ma_slot_allocator_uninit.exit

26:                                               ; preds = %20
  tail call void @free(ptr noundef nonnull %18) #69
  br label %ma_slot_allocator_uninit.exit

ma_slot_allocator_uninit.exit:                    ; preds = %13, %16, %21, %24, %26
  %27 = getelementptr inbounds nuw i8, ptr %0, i64 184
  %28 = load i32, ptr %27, align 8, !tbaa !82
  %.not = icmp eq i32 %28, 0
  br i1 %.not, label %ma_free.exit, label %29

29:                                               ; preds = %ma_slot_allocator_uninit.exit
  %30 = getelementptr inbounds nuw i8, ptr %0, i64 176
  %31 = load ptr, ptr %30, align 8, !tbaa !73
  %32 = icmp eq ptr %31, null
  br i1 %32, label %ma_free.exit, label %33

33:                                               ; preds = %29
  %.not.i8 = icmp eq ptr %1, null
  br i1 %.not.i8, label %39, label %34

34:                                               ; preds = %33
  %35 = getelementptr inbounds nuw i8, ptr %1, i64 24
  %36 = load ptr, ptr %35, align 8, !tbaa !26
  %.not9.i = icmp eq ptr %36, null
  br i1 %.not9.i, label %ma_free.exit, label %37

37:                                               ; preds = %34
  %38 = load ptr, ptr %1, align 8, !tbaa !21
  tail call void %36(ptr noundef nonnull %31, ptr noundef %38) #69
  br label %ma_free.exit

39:                                               ; preds = %33
  tail call void @free(ptr noundef nonnull %31) #69
  br label %ma_free.exit

ma_free.exit:                                     ; preds = %39, %37, %34, %29, %2, %ma_slot_allocator_uninit.exit
  ret void
}